target datalayout = "e-m:e-p270:32:32-p271:32:32-p272:64:64-i64:64-i128:128-f80:128-n8:16:32:64-S128"
target triple = "x86_64-pc-linux-gnu"

%"class.ceres::LossFunction" = type { ptr }
%"class.std::unique_ptr.2" = type { %"struct.std::__uniq_ptr_data.3" }
%"struct.std::__uniq_ptr_data.3" = type { %"class.std::__uniq_ptr_impl.4" }
%"class.std::__uniq_ptr_impl.4" = type { %"class.std::tuple.5" }
%"class.std::tuple.5" = type { %"struct.std::_Tuple_impl.6" }
%"struct.std::_Tuple_impl.6" = type { %"struct.std::_Head_base.9" }
%"struct.std::_Head_base.9" = type { ptr }
%"class.ceres::ScaledLoss" = type <{ %"class.ceres::LossFunction", %"class.std::unique_ptr.2", double, i32, [4 x i8] }>

; Function Attrs: mustprogress nounwind uwtable
define linkonce_odr hidden noundef nonnull align 8 dereferenceable(8) ptr @_ZNSt10_Head_baseILm0EPKN5ceres12LossFunctionELb0EE7_M_headERKS4_(ptr noundef nonnull align 8 dereferenceable(8) %0) #0 comdat align 2 {
  %2 = alloca ptr, align 8
  store ptr %0, ptr %2, align 8, !tbaa !97
  %3 = load ptr, ptr %2, align 8, !tbaa !97
  %4 = getelementptr inbounds nuw %"struct.std::_Head_base.9", ptr %3, i32 0, i32 0
  ret ptr %4
}

; Function Attrs: mustprogress nounwind uwtable
define linkonce_odr hidden noundef nonnull align 8 dereferenceable(8) ptr @_ZNSt11_Tuple_implILm0EJPKN5ceres12LossFunctionESt14default_deleteIS2_EEE7_M_headERKS6_(ptr noundef nonnull align 8 dereferenceable(8) %0) #0 comdat align 2 {
  %2 = alloca ptr, align 8
  store ptr %0, ptr %2, align 8, !tbaa !93
  %3 = load ptr, ptr %2, align 8, !tbaa !93
  %4 = call noundef nonnull align 8 dereferenceable(8) ptr @_ZNSt10_Head_baseILm0EPKN5ceres12LossFunctionELb0EE7_M_headERKS4_(ptr noundef nonnull align 8 dereferenceable(8) %3) #15
  ret ptr %4
}

; Function Attrs: mustprogress nounwind uwtable
define linkonce_odr hidden noundef nonnull align 8 dereferenceable(8) ptr @_ZSt12__get_helperILm0EPKN5ceres12LossFunctionEJSt14default_deleteIS2_EEERKT0_RKSt11_Tuple_implIXT_EJS6_DpT1_EE(ptr noundef nonnull align 8 dereferenceable(8) %0) #0 comdat {
  %2 = alloca ptr, align 8
  store ptr %0, ptr %2, align 8, !tbaa !93
  %3 = load ptr, ptr %2, align 8, !tbaa !93
  %4 = call noundef nonnull align 8 dereferenceable(8) ptr @_ZNSt11_Tuple_implILm0EJPKN5ceres12LossFunctionESt14default_deleteIS2_EEE7_M_headERKS6_(ptr noundef nonnull align 8 dereferenceable(8) %3) #15
  ret ptr %4
}

; Function Attrs: mustprogress nounwind uwtable
define linkonce_odr hidden noundef nonnull align 8 dereferenceable(8) ptr @_ZSt3getILm0EJPKN5ceres12LossFunctionESt14default_deleteIS2_EEERKNSt13tuple_elementIXT_ESt5tupleIJDpT0_EEE4typeERKSA_(ptr noundef nonnull align 8 dereferenceable(8) %0) #0 comdat {
  %2 = alloca ptr, align 8
  store ptr %0, ptr %2, align 8, !tbaa !91
  %3 = load ptr, ptr %2, align 8, !tbaa !91
  %4 = call noundef nonnull align 8 dereferenceable(8) ptr @_ZSt12__get_helperILm0EPKN5ceres12LossFunctionEJSt14default_deleteIS2_EEERKT0_RKSt11_Tuple_implIXT_EJS6_DpT1_EE(ptr noundef nonnull align 8 dereferenceable(8) %3) #15
  ret ptr %4
}

; Function Attrs: mustprogress nounwind uwtable
define linkonce_odr hidden noundef ptr @_ZNKSt15__uniq_ptr_implIKN5ceres12LossFunctionESt14default_deleteIS2_EE6_M_ptrEv(ptr noundef nonnull align 8 dereferenceable(8) %0) #0 comdat align 2 {
  %2 = alloca ptr, align 8
  store ptr %0, ptr %2, align 8, !tbaa !89
  %3 = load ptr, ptr %2, align 8
  %4 = getelementptr inbounds nuw %"class.std::__uniq_ptr_impl.4", ptr %3, i32 0, i32 0
  %5 = call noundef nonnull align 8 dereferenceable(8) ptr @_ZSt3getILm0EJPKN5ceres12LossFunctionESt14default_deleteIS2_EEERKNSt13tuple_elementIXT_ESt5tupleIJDpT0_EEE4typeERKSA_(ptr noundef nonnull align 8 dereferenceable(8) %4) #15
  %6 = load ptr, ptr %5, align 8, !tbaa !3
  ret ptr %6
}

; Function Attrs: mustprogress nounwind uwtable
define linkonce_odr hidden noundef ptr @_ZNKSt10unique_ptrIKN5ceres12LossFunctionESt14default_deleteIS2_EEptEv(ptr noundef nonnull align 8 dereferenceable(8) %0) #0 comdat align 2 {
  %2 = alloca ptr, align 8
  store ptr %0, ptr %2, align 8, !tbaa !70
  %3 = load ptr, ptr %2, align 8
  %4 = call noundef ptr @_ZNKSt10unique_ptrIKN5ceres12LossFunctionESt14default_deleteIS2_EE3getEv(ptr noundef nonnull align 8 dereferenceable(8) %3) #15
  ret ptr %4
}

; Function Attrs: mustprogress nounwind uwtable
define linkonce_odr hidden noundef ptr @_ZNKSt10unique_ptrIKN5ceres12LossFunctionESt14default_deleteIS2_EE3getEv(ptr noundef nonnull align 8 dereferenceable(8) %0) #0 comdat align 2 {
  %2 = alloca ptr, align 8
  store ptr %0, ptr %2, align 8, !tbaa !70
  %3 = load ptr, ptr %2, align 8
  %4 = getelementptr inbounds nuw %"class.std::unique_ptr.2", ptr %3, i32 0, i32 0
  %5 = call noundef ptr @_ZNKSt15__uniq_ptr_implIKN5ceres12LossFunctionESt14default_deleteIS2_EE6_M_ptrEv(ptr noundef nonnull align 8 dereferenceable(8) %4) #15
  ret ptr %5
}

; Function Attrs: mustprogress uwtable
define hidden void @_ZNK5ceres10ScaledLoss8EvaluateEdPd(ptr noundef nonnull align 8 dereferenceable(32) %0, double noundef %1, ptr noundef %2) unnamed_addr #2 align 2 {
  %4 = alloca ptr, align 8
  %5 = alloca double, align 8
  %6 = alloca ptr, align 8
  store ptr %0, ptr %4, align 8, !tbaa !82
  store double %1, ptr %5, align 8, !tbaa !10
  store ptr %2, ptr %6, align 8, !tbaa !12
  %7 = load ptr, ptr %4, align 8
  %8 = getelementptr inbounds nuw %"class.ceres::ScaledLoss", ptr %7, i32 0, i32 1
  %9 = call noundef ptr @_ZNKSt10unique_ptrIKN5ceres12LossFunctionESt14default_deleteIS2_EE3getEv(ptr noundef nonnull align 8 dereferenceable(8) %8) #15
  %10 = icmp eq ptr %9, null
  br i1 %10, label %11, label %24

11:                                               ; preds = %3
  %12 = getelementptr inbounds nuw %"class.ceres::ScaledLoss", ptr %7, i32 0, i32 2
  %13 = load double, ptr %12, align 8, !tbaa !84
  %14 = load double, ptr %5, align 8, !tbaa !10
  %15 = fmul double %13, %14
  %16 = load ptr, ptr %6, align 8, !tbaa !12
  %17 = getelementptr inbounds double, ptr %16, i64 0
  store double %15, ptr %17, align 8, !tbaa !10
  %18 = getelementptr inbounds nuw %"class.ceres::ScaledLoss", ptr %7, i32 0, i32 2
  %19 = load double, ptr %18, align 8, !tbaa !84
  %20 = load ptr, ptr %6, align 8, !tbaa !12
  %21 = getelementptr inbounds double, ptr %20, i64 1
  store double %19, ptr %21, align 8, !tbaa !10
  %22 = load ptr, ptr %6, align 8, !tbaa !12
  %23 = getelementptr inbounds double, ptr %22, i64 2
  store double 0.000000e+00, ptr %23, align 8, !tbaa !10
  br label %50

24:                                               ; preds = %3
  %25 = getelementptr inbounds nuw %"class.ceres::ScaledLoss", ptr %7, i32 0, i32 1
  %26 = call noundef ptr @_ZNKSt10unique_ptrIKN5ceres12LossFunctionESt14default_deleteIS2_EEptEv(ptr noundef nonnull align 8 dereferenceable(8) %25) #15
  %27 = load double, ptr %5, align 8, !tbaa !10
  %28 = load ptr, ptr %6, align 8, !tbaa !12
  %29 = load ptr, ptr %26, align 8, !tbaa !39
  %30 = getelementptr inbounds ptr, ptr %29, i64 2
  %31 = load ptr, ptr %30, align 8
  call void %31(ptr noundef nonnull align 8 dereferenceable(8) %26, double noundef %27, ptr noundef %28)
  %32 = getelementptr inbounds nuw %"class.ceres::ScaledLoss", ptr %7, i32 0, i32 2
  %33 = load double, ptr %32, align 8, !tbaa !84
  %34 = load ptr, ptr %6, align 8, !tbaa !12
  %35 = getelementptr inbounds double, ptr %34, i64 0
  %36 = load double, ptr %35, align 8, !tbaa !10
  %37 = fmul double %36, %33
  store double %37, ptr %35, align 8, !tbaa !10
  %38 = getelementptr inbounds nuw %"class.ceres::ScaledLoss", ptr %7, i32 0, i32 2
  %39 = load double, ptr %38, align 8, !tbaa !84
  %40 = load ptr, ptr %6, align 8, !tbaa !12
  %41 = getelementptr inbounds double, ptr %40, i64 1
  %42 = load double, ptr %41, align 8, !tbaa !10
  %43 = fmul double %42, %39
  store double %43, ptr %41, align 8, !tbaa !10
  %44 = getelementptr inbounds nuw %"class.ceres::ScaledLoss", ptr %7, i32 0, i32 2
  %45 = load double, ptr %44, align 8, !tbaa !84
  %46 = load ptr, ptr %6, align 8, !tbaa !12
  %47 = getelementptr inbounds double, ptr %46, i64 2
  %48 = load double, ptr %47, align 8, !tbaa !10
  %49 = fmul double %48, %45
  store double %49, ptr %47, align 8, !tbaa !10
  br label %50

50:                                               ; preds = %24, %11
  ret void
}