; Function Attrs: mustprogress uwtable
define hidden void @_ZNK5ceres10ScaledLoss8EvaluateEdPd(ptr noundef nonnull readonly align 8 captures(none) dereferenceable(32) %0, double noundef %1, ptr noundef %2) unnamed_addr #7 align 2 {
  %4 = getelementptr inbounds nuw i8, ptr %0, i64 8
  %5 = load ptr, ptr %4, align 8, !tbaa !39
  %6 = icmp eq ptr %5, null
  br i1 %6, label %7, label %14

7:                                                ; preds = %3
  %8 = getelementptr inbounds nuw i8, ptr %0, i64 16
  %9 = load double, ptr %8, align 8, !tbaa !51
  %10 = fmul double %1, %9
  store double %10, ptr %2, align 8, !tbaa !3
  %11 = load double, ptr %8, align 8, !tbaa !51
  %12 = getelementptr inbounds nuw i8, ptr %2, i64 8
  store double %11, ptr %12, align 8, !tbaa !3
  %13 = getelementptr inbounds nuw i8, ptr %2, i64 16
  store double 0.000000e+00, ptr %13, align 8, !tbaa !3
  br label %30

14:                                               ; preds = %3
  %15 = load ptr, ptr %5, align 8, !tbaa !22
  %16 = getelementptr inbounds nuw i8, ptr %15, i64 16
  %17 = load ptr, ptr %16, align 8
  tail call void %17(ptr noundef nonnull align 8 dereferenceable(8) %5, double noundef %1, ptr noundef %2)
  %18 = getelementptr inbounds nuw i8, ptr %0, i64 16
  %19 = load double, ptr %18, align 8, !tbaa !51
  %20 = load double, ptr %2, align 8, !tbaa !3
  %21 = fmul double %19, %20
  store double %21, ptr %2, align 8, !tbaa !3
  %22 = load double, ptr %18, align 8, !tbaa !51
  %23 = getelementptr inbounds nuw i8, ptr %2, i64 8
  %24 = load double, ptr %23, align 8, !tbaa !3
  %25 = fmul double %22, %24
  store double %25, ptr %23, align 8, !tbaa !3
  %26 = load double, ptr %18, align 8, !tbaa !51
  %27 = getelementptr inbounds nuw i8, ptr %2, i64 16
  %28 = load double, ptr %27, align 8, !tbaa !3
  %29 = fmul double %26, %28
  store double %29, ptr %27, align 8, !tbaa !3
  br label %30

30:                                               ; preds = %14, %7
  ret void
}